; Function Attrs: mustprogress nounwind uwtable
define hidden noundef zeroext i1 @_ZN10JavaThread14is_interruptedEb(ptr nocapture noundef nonnull readonly align 8 dereferenceable(1800) %0, i1 noundef zeroext %1) local_unnamed_addr #0 align 2 {
  %3 = getelementptr inbounds i8, ptr %0, i64 896
  %4 = load ptr, ptr %3, align 8
  %5 = icmp eq ptr %4, null
  br i1 %5, label %_ZNK9OopHandle4peekEv.exit.thread, label %_ZNK9OopHandle4peekEv.exit

_ZNK9OopHandle4peekEv.exit:                       ; preds = %2
  %6 = load ptr, ptr @_ZN14AccessInternal15RuntimeDispatchILm544836EP7oopDescLNS_11BarrierTypeE2EE10_load_funcE, align 8
  %7 = tail call noundef ptr %6(ptr noundef nonnull %4) #21
  %8 = icmp eq ptr %7, null
  br i1 %8, label %_ZNK9OopHandle4peekEv.exit.thread, label %9

9:                                                ; preds = %_ZNK9OopHandle4peekEv.exit
  %10 = load ptr, ptr %3, align 8
  %11 = icmp eq ptr %10, null
  br i1 %11, label %_ZNK10JavaThread9threadObjEv.exit, label %12

12:                                               ; preds = %9
  %13 = load ptr, ptr @_ZN14AccessInternal15RuntimeDispatchILm548932EP7oopDescLNS_11BarrierTypeE2EE10_load_funcE, align 8
  %14 = tail call noundef ptr %13(ptr noundef nonnull %10) #21
  br label %_ZNK10JavaThread9threadObjEv.exit

_ZNK10JavaThread9threadObjEv.exit:                ; preds = %9, %12
  %15 = phi ptr [ %14, %12 ], [ null, %9 ]
  %16 = tail call noundef zeroext i1 @_ZN16java_lang_Thread11interruptedEP7oopDesc(ptr noundef %15) #21
  %brmerge.demorgan = and i1 %16, %1
  br i1 %brmerge.demorgan, label %17, label %_ZNK9OopHandle4peekEv.exit.thread

17:                                               ; preds = %_ZNK10JavaThread9threadObjEv.exit
  %18 = load ptr, ptr %3, align 8
  %19 = icmp eq ptr %18, null
  br i1 %19, label %_ZNK10JavaThread9threadObjEv.exit5, label %20

20:                                               ; preds = %17
  %21 = load ptr, ptr @_ZN14AccessInternal15RuntimeDispatchILm548932EP7oopDescLNS_11BarrierTypeE2EE10_load_funcE, align 8
  %22 = tail call noundef ptr %21(ptr noundef nonnull %18) #21
  br label %_ZNK10JavaThread9threadObjEv.exit5

_ZNK10JavaThread9threadObjEv.exit5:               ; preds = %17, %20
  %23 = phi ptr [ %22, %20 ], [ null, %17 ]
  tail call void @_ZN16java_lang_Thread15set_interruptedEP7oopDescb(ptr noundef %23, i1 noundef zeroext false) #21
  br label %_ZNK9OopHandle4peekEv.exit.thread

_ZNK9OopHandle4peekEv.exit.thread:                ; preds = %2, %_ZNK10JavaThread9threadObjEv.exit5, %_ZNK10JavaThread9threadObjEv.exit, %_ZNK9OopHandle4peekEv.exit
  %.0 = phi i1 [ false, %_ZNK9OopHandle4peekEv.exit ], [ %16, %_ZNK10JavaThread9threadObjEv.exit ], [ true, %_ZNK10JavaThread9threadObjEv.exit5 ], [ false, %2 ]
  ret i1 %.0
}